target datalayout = "e-m:e-p270:32:32-p271:32:32-p272:64:64-i64:64-i128:128-f80:128-n8:16:32:64-S128"
target triple = "x86_64-pc-linux-gnu"

@_ZTISt13runtime_error = external constant ptr
@.str.21 = private unnamed_addr constant [46 x i8] c"Shader::draw_array(): invalid primitive type!\00", align 1

; Function Attrs: mustprogress uwtable
define hidden void @_ZN7nanogui6Shader10draw_arrayENS0_13PrimitiveTypeEmmb(ptr noundef nonnull align 8 dereferenceable(125) %0, i32 noundef %1, i64 noundef %2, i64 noundef %3, i1 noundef zeroext %4) #0 align 2 personality ptr @__gxx_personality_v0 {
  %6 = alloca ptr, align 8
  %7 = alloca i32, align 4
  %8 = alloca i64, align 8
  %9 = alloca i64, align 8
  %10 = alloca i8, align 1
  %11 = alloca i32, align 4
  %12 = alloca ptr, align 8
  %13 = alloca i32, align 4
  store ptr %0, ptr %6, align 8
  store i32 %1, ptr %7, align 4
  store i64 %2, ptr %8, align 8
  store i64 %3, ptr %9, align 8
  %14 = zext i1 %4 to i8
  store i8 %14, ptr %10, align 1
  %15 = load i32, ptr %7, align 4
  switch i32 %15, label %21 [
    i32 0, label %16
    i32 1, label %17
    i32 2, label %18
    i32 3, label %19
    i32 4, label %20
  ]

16:                                               ; preds = %5
  store i32 0, ptr %11, align 4
  br label %28

17:                                               ; preds = %5
  store i32 1, ptr %11, align 4
  br label %28

18:                                               ; preds = %5
  store i32 3, ptr %11, align 4
  br label %28

19:                                               ; preds = %5
  store i32 4, ptr %11, align 4
  br label %28

20:                                               ; preds = %5
  store i32 5, ptr %11, align 4
  br label %28

21:                                               ; preds = %5
  %22 = call ptr @__cxa_allocate_exception(i64 16) #11
  invoke void @_ZNSt13runtime_errorC1EPKc(ptr noundef nonnull align 8 dereferenceable(16) %22, ptr noundef @.str.21)
          to label %23 unwind label %24

23:                                               ; preds = %21
  call void @__cxa_throw(ptr %22, ptr @_ZTISt13runtime_error, ptr @_ZNSt13runtime_errorD1Ev) #12
  unreachable

24:                                               ; preds = %21
  %25 = landingpad { ptr, i32 }
          cleanup
  %26 = extractvalue { ptr, i32 } %25, 0
  store ptr %26, ptr %12, align 8
  %27 = extractvalue { ptr, i32 } %25, 1
  store i32 %27, ptr %13, align 4
  call void @__cxa_free_exception(ptr %22) #11
  br label %45

28:                                               ; preds = %20, %19, %18, %17, %16
  %29 = load i8, ptr %10, align 1
  %30 = trunc i8 %29 to i1
  br i1 %30, label %37, label %31

31:                                               ; preds = %28
  %32 = load i32, ptr %11, align 4
  %33 = load i64, ptr %8, align 8
  %34 = trunc i64 %33 to i32
  %35 = load i64, ptr %9, align 8
  %36 = trunc i64 %35 to i32
  call void @glDrawArrays(i32 noundef %32, i32 noundef %34, i32 noundef %36)
  br label %44

37:                                               ; preds = %28
  %38 = load i32, ptr %11, align 4
  %39 = load i64, ptr %9, align 8
  %40 = trunc i64 %39 to i32
  %41 = load i64, ptr %8, align 8
  %42 = mul i64 %41, 4
  %43 = inttoptr i64 %42 to ptr
  call void @glDrawElements(i32 noundef %38, i32 noundef %40, i32 noundef 5125, ptr noundef %43)
  br label %44

44:                                               ; preds = %37, %31
  ret void

45:                                               ; preds = %24
  %46 = load ptr, ptr %12, align 8
  %47 = load i32, ptr %13, align 4
  %48 = insertvalue { ptr, i32 } poison, ptr %46, 0
  %49 = insertvalue { ptr, i32 } %48, i32 %47, 1
  resume { ptr, i32 } %49
}