; Function Attrs: mustprogress uwtable
define hidden void @_ZN7nanogui6Shader10draw_arrayENS0_13PrimitiveTypeEmmb(ptr nocapture noundef nonnull readnone align 8 dereferenceable(125) %0, i32 noundef %1, i64 noundef %2, i64 noundef %3, i1 noundef zeroext %4) local_unnamed_addr #0 align 2 personality ptr @__gxx_personality_v0 {
  %6 = icmp ult i32 %1, 5
  br i1 %6, label %switch.lookup, label %7

7:                                                ; preds = %5
  %8 = tail call ptr @__cxa_allocate_exception(i64 16) #13
  invoke void @_ZNSt13runtime_errorC1EPKc(ptr noundef nonnull align 8 dereferenceable(16) %8, ptr noundef nonnull @.str.21)
          to label %9 unwind label %10

9:                                                ; preds = %7
  tail call void @__cxa_throw(ptr nonnull %8, ptr nonnull @_ZTISt13runtime_error, ptr nonnull @_ZNSt13runtime_errorD1Ev) #14
  unreachable

10:                                               ; preds = %7
  %11 = landingpad { ptr, i32 }
          cleanup
  tail call void @__cxa_free_exception(ptr %8) #13
  resume { ptr, i32 } %11

switch.lookup:                                    ; preds = %5
  %12 = zext nneg i32 %1 to i64
  %switch.gep = getelementptr inbounds [5 x i32], ptr @switch.table._ZN7nanogui6Shader10draw_arrayENS0_13PrimitiveTypeEmmb, i64 0, i64 %12
  %switch.load = load i32, ptr %switch.gep, align 4
  br i1 %4, label %16, label %13

13:                                               ; preds = %switch.lookup
  %14 = trunc i64 %2 to i32
  %15 = trunc i64 %3 to i32
  tail call void @glDrawArrays(i32 noundef %switch.load, i32 noundef %14, i32 noundef %15)
  br label %20

16:                                               ; preds = %switch.lookup
  %17 = trunc i64 %3 to i32
  %18 = shl i64 %2, 2
  %19 = inttoptr i64 %18 to ptr
  tail call void @glDrawElements(i32 noundef %switch.load, i32 noundef %17, i32 noundef 5125, ptr noundef %19)
  br label %20

20:                                               ; preds = %16, %13
  ret void
}